target datalayout = "e-m:e-p270:32:32-p271:32:32-p272:64:64-i64:64-i128:128-f80:128-n8:16:32:64-S128"
target triple = "x86_64-pc-linux-gnu"

%struct.rb_ast_struct = type { ptr, %struct.rb_ast_body_struct }
%struct.rb_ast_body_struct = type { ptr, ptr, i32, i8 }

@COMPILE_OPTION_DEFAULT = internal global { i8, i8, [2 x i8], i32 } { i8 -37, i8 2, [2 x i8] zeroinitializer, i32 0 }, align 4

; Function Attrs: nounwind sspstrong uwtable
define internal i64 @iseq_setup_coverage(i64 noundef %0, i64 noundef %1, i32 noundef %2) #0 {
  %4 = alloca i64, align 8
  %5 = alloca i64, align 8
  %6 = alloca i64, align 8
  %7 = alloca i32, align 4
  %8 = alloca i32, align 4
  %9 = alloca i64, align 8
  store i64 %0, ptr %5, align 8, !tbaa !17
  store i64 %1, ptr %6, align 8, !tbaa !17
  store i32 %2, ptr %7, align 4, !tbaa !56
  %10 = load i32, ptr %7, align 4, !tbaa !56
  %11 = icmp sge i32 %10, 0
  br i1 %11, label %12, label %28

12:                                               ; preds = %3
  call void @llvm.lifetime.start.p0(i64 4, ptr %8) #24
  %13 = call i32 @rb_get_coverage_mode()
  %14 = and i32 %13, 8
  %15 = icmp ne i32 %14, 0
  br i1 %15, label %16, label %17

16:                                               ; preds = %12
  br label %19

17:                                               ; preds = %12
  %18 = load i32, ptr %7, align 4, !tbaa !56
  br label %19

19:                                               ; preds = %17, %16
  %20 = phi i32 [ 0, %16 ], [ %18, %17 ]
  store i32 %20, ptr %8, align 4, !tbaa !56
  call void @llvm.lifetime.start.p0(i64 8, ptr %9) #24
  %21 = load i32, ptr %8, align 4, !tbaa !56
  %22 = call i64 @rb_default_coverage(i32 noundef %21)
  store i64 %22, ptr %9, align 8, !tbaa !17
  %23 = load i64, ptr %5, align 8, !tbaa !17
  %24 = load i64, ptr %6, align 8, !tbaa !17
  %25 = load i64, ptr %9, align 8, !tbaa !17
  %26 = call i64 @rb_hash_aset(i64 noundef %23, i64 noundef %24, i64 noundef %25)
  %27 = load i64, ptr %9, align 8, !tbaa !17
  store i64 %27, ptr %4, align 8
  call void @llvm.lifetime.end.p0(i64 8, ptr %9) #24
  call void @llvm.lifetime.end.p0(i64 4, ptr %8) #24
  br label %29

28:                                               ; preds = %3
  store i64 4, ptr %4, align 8
  br label %29

29:                                               ; preds = %28, %19
  %30 = load i64, ptr %4, align 8
  ret i64 %30
}

; Function Attrs: inlinehint nounwind sspstrong willreturn memory(none) uwtable
define internal zeroext i1 @RB_TEST(i64 noundef %0) #7 {
  %2 = alloca i64, align 8
  store i64 %0, ptr %2, align 8, !tbaa !17
  %3 = load i64, ptr %2, align 8, !tbaa !17
  %4 = and i64 %3, -5
  %5 = icmp ne i64 %4, 0
  ret i1 %5
}

; Function Attrs: inlinehint nounwind sspstrong uwtable
define internal void @iseq_new_setup_coverage(i64 noundef %0, i32 noundef %1) #5 {
  %3 = alloca i64, align 8
  %4 = alloca i32, align 4
  %5 = alloca i64, align 8
  store i64 %0, ptr %3, align 8, !tbaa !17
  store i32 %1, ptr %4, align 4, !tbaa !56
  call void @llvm.lifetime.start.p0(i64 8, ptr %5) #24
  %6 = call i64 @rb_get_coverages()
  store i64 %6, ptr %5, align 8, !tbaa !17
  %7 = load i64, ptr %5, align 8, !tbaa !17
  %8 = call zeroext i1 @RB_TEST(i64 noundef %7) #28
  br i1 %8, label %9, label %14

9:                                                ; preds = %2
  %10 = load i64, ptr %5, align 8, !tbaa !17
  %11 = load i64, ptr %3, align 8, !tbaa !17
  %12 = load i32, ptr %4, align 4, !tbaa !56
  %13 = call i64 @iseq_setup_coverage(i64 noundef %10, i64 noundef %11, i32 noundef %12)
  br label %14

14:                                               ; preds = %9, %2
  call void @llvm.lifetime.end.p0(i64 8, ptr %5) #24
  ret void
}

; Function Attrs: nounwind sspstrong uwtable
define internal i32 @ast_line_count(i64 noundef %0) #0 {
  %2 = alloca i64, align 8
  %3 = alloca ptr, align 8
  store i64 %0, ptr %2, align 8, !tbaa !17
  call void @llvm.lifetime.start.p0(i64 8, ptr %3) #24
  %4 = load i64, ptr %2, align 8, !tbaa !17
  %5 = call ptr @rb_ruby_ast_data_get(i64 noundef %4)
  store ptr %5, ptr %3, align 8, !tbaa !161
  %6 = load ptr, ptr %3, align 8, !tbaa !161
  %7 = getelementptr inbounds nuw %struct.rb_ast_struct, ptr %6, i32 0, i32 1
  %8 = getelementptr inbounds nuw %struct.rb_ast_body_struct, ptr %7, i32 0, i32 2
  %9 = load i32, ptr %8, align 8, !tbaa !175
  call void @llvm.lifetime.end.p0(i64 8, ptr %3) #24
  ret i32 %9
}

; Function Attrs: nounwind sspstrong uwtable
define dso_local ptr @rb_iseq_new_top(i64 noundef %0, i64 noundef %1, i64 noundef %2, i64 noundef %3, ptr noundef %4) #0 {
  %6 = alloca i64, align 8
  %7 = alloca i64, align 8
  %8 = alloca i64, align 8
  %9 = alloca i64, align 8
  %10 = alloca ptr, align 8
  store i64 %0, ptr %6, align 8, !tbaa !17
  store i64 %1, ptr %7, align 8, !tbaa !17
  store i64 %2, ptr %8, align 8, !tbaa !17
  store i64 %3, ptr %9, align 8, !tbaa !17
  store ptr %4, ptr %10, align 8, !tbaa !7
  %11 = load i64, ptr %8, align 8, !tbaa !17
  %12 = load i64, ptr %6, align 8, !tbaa !17
  %13 = call i32 @ast_line_count(i64 noundef %12)
  call void @iseq_new_setup_coverage(i64 noundef %11, i32 noundef %13)
  %14 = load i64, ptr %6, align 8, !tbaa !17
  %15 = load i64, ptr %7, align 8, !tbaa !17
  %16 = load i64, ptr %8, align 8, !tbaa !17
  %17 = load i64, ptr %9, align 8, !tbaa !17
  %18 = load ptr, ptr %10, align 8, !tbaa !7
  %19 = call ptr @rb_iseq_new_with_opt(i64 noundef %14, i64 noundef %15, i64 noundef %16, i64 noundef %17, i32 noundef 0, ptr noundef %18, i32 noundef 0, i32 noundef 0, ptr noundef @COMPILE_OPTION_DEFAULT, i64 noundef 4)
  ret ptr %19
}