; Function Attrs: nounwind sspstrong uwtable
define dso_local ptr @rb_iseq_new_top(i64 noundef %0, i64 noundef %1, i64 noundef %2, i64 noundef %3, ptr noundef %4) local_unnamed_addr #0 {
  %6 = tail call ptr @rb_ruby_ast_data_get(i64 noundef %0) #20
  %7 = getelementptr inbounds nuw i8, ptr %6, i64 24
  %8 = load i32, ptr %7, align 8, !tbaa !180
  %9 = tail call i64 @rb_get_coverages() #20
  %10 = and i64 %9, -5
  %11 = icmp ne i64 %10, 0
  %12 = icmp sgt i32 %8, -1
  %or.cond.i = and i1 %12, %11
  br i1 %or.cond.i, label %13, label %iseq_new_setup_coverage.exit

13:                                               ; preds = %5
  %14 = tail call i32 @rb_get_coverage_mode() #20
  %15 = and i32 %14, 8
  %.not.i.i = icmp eq i32 %15, 0
  %16 = select i1 %.not.i.i, i32 %8, i32 0
  %17 = tail call i64 @rb_default_coverage(i32 noundef %16) #20
  %18 = tail call i64 @rb_hash_aset(i64 noundef %9, i64 noundef %2, i64 noundef %17) #20
  br label %iseq_new_setup_coverage.exit

iseq_new_setup_coverage.exit:                     ; preds = %5, %13
  %19 = tail call ptr @rb_iseq_new_with_opt(i64 noundef %0, i64 noundef %1, i64 noundef %2, i64 noundef %3, i32 noundef 0, ptr noundef %4, i32 noundef 0, i32 noundef 0, ptr noundef nonnull @COMPILE_OPTION_DEFAULT, i64 noundef 4)
  ret ptr %19
}